target datalayout = "e-m:e-p270:32:32-p271:32:32-p272:64:64-i64:64-i128:128-f80:128-n8:16:32:64-S128"
target triple = "x86_64-pc-linux-gnu"

%struct.expert_field = type { i32, i32 }
%struct.rlc_lte_info = type { i8, i8, i8, i8, i16, i16, i16, i16, i8, i32 }
%struct._proto_node = type { ptr, ptr, ptr, ptr, ptr, ptr, ptr }
%struct.field_info = type { ptr, i32, i32, i32, i32, i32, i32, ptr, ptr, ptr, i32, i32 }
%struct.channel_repeated_nack_report = type { i16, [512 x i16], i32 }

@hf_rlc_lte_sequence_analysis = internal global i32 0, align 4
@.str.118 = private unnamed_addr constant [18 x i8] c"Sequence Analysis\00", align 1
@hf_rlc_lte_sequence_analysis_ok = internal global i32 0, align 4
@hf_rlc_lte_sequence_analysis_repeated_nack = internal global i32 0, align 4
@hf_rlc_lte_sequence_analysis_repeated_nack_original_frame = internal global i32 0, align 4
@ett_rlc_lte_sequence_analysis = internal global i32 0, align 4
@ei_rlc_lte_sequence_analysis_repeated_nack = internal global %struct.expert_field zeroinitializer, align 4
@direction_vals = internal constant [3 x { i32, [4 x i8], ptr }] [{ i32, [4 x i8], ptr } { i32 0, [4 x i8] zeroinitializer, ptr @.str.267 }, { i32, [4 x i8], ptr } { i32 1, [4 x i8] zeroinitializer, ptr @.str.268 }, { i32, [4 x i8], ptr } zeroinitializer], align 16
@.str.310 = private unnamed_addr constant [1 x i8] zeroinitializer, align 1
@.str.316 = private unnamed_addr constant [8 x i8] c"Unknown\00", align 1
@.str.387 = private unnamed_addr constant [62 x i8] c"Same SN  (%u) NACKd for %s on UE %u in successive Status PDUs\00", align 1
@.str.388 = private unnamed_addr constant [44 x i8] c" - %u SNs repeated from previous Status PDU\00", align 1

; Function Attrs: inlinehint nounwind null_pointer_is_valid sspstrong uwtable
define internal void @proto_item_set_generated(ptr noundef %0) #5 {
  %2 = alloca ptr, align 8
  store ptr %0, ptr %2, align 8
  %3 = load ptr, ptr %2, align 8
  %4 = icmp ne ptr %3, null
  br i1 %4, label %5, label %24

5:                                                ; preds = %1
  br label %6

6:                                                ; preds = %5
  %7 = load ptr, ptr %2, align 8
  %8 = getelementptr inbounds nuw %struct._proto_node, ptr %7, i32 0, i32 5
  %9 = load ptr, ptr %8, align 8
  %10 = icmp ne ptr %9, null
  br i1 %10, label %11, label %22

11:                                               ; preds = %6
  %12 = load ptr, ptr %2, align 8
  %13 = getelementptr inbounds nuw %struct._proto_node, ptr %12, i32 0, i32 5
  %14 = load ptr, ptr %13, align 8
  %15 = getelementptr inbounds nuw %struct.field_info, ptr %14, i32 0, i32 6
  %16 = load i32, ptr %15, align 4
  %17 = or i32 %16, 2
  %18 = load ptr, ptr %2, align 8
  %19 = getelementptr inbounds nuw %struct._proto_node, ptr %18, i32 0, i32 5
  %20 = load ptr, ptr %19, align 8
  %21 = getelementptr inbounds nuw %struct.field_info, ptr %20, i32 0, i32 6
  store i32 %17, ptr %21, align 4
  br label %22

22:                                               ; preds = %11, %6
  br label %23

23:                                               ; preds = %22
  br label %24

24:                                               ; preds = %23, %1
  ret void
}

; Function Attrs: null_pointer_is_valid sspstrong uwtable
define internal void @addChannelRepeatedNACKInfo(ptr noundef %0, ptr noundef %1, ptr noundef %2, ptr noundef %3, ptr noundef %4) #0 {
  %6 = alloca ptr, align 8
  %7 = alloca ptr, align 8
  %8 = alloca ptr, align 8
  %9 = alloca ptr, align 8
  %10 = alloca ptr, align 8
  %11 = alloca ptr, align 8
  %12 = alloca ptr, align 8
  %13 = alloca ptr, align 8
  %14 = alloca i32, align 4
  store ptr %0, ptr %6, align 8
  store ptr %1, ptr %7, align 8
  store ptr %2, ptr %8, align 8
  store ptr %3, ptr %9, align 8
  store ptr %4, ptr %10, align 8
  call void @llvm.lifetime.start.p0(i64 8, ptr %11) #16
  call void @llvm.lifetime.start.p0(i64 8, ptr %12) #16
  call void @llvm.lifetime.start.p0(i64 8, ptr %13) #16
  call void @llvm.lifetime.start.p0(i64 4, ptr %14) #16
  %15 = load ptr, ptr %9, align 8
  %16 = load i32, ptr @hf_rlc_lte_sequence_analysis, align 4
  %17 = load ptr, ptr %10, align 8
  %18 = call ptr (ptr, i32, ptr, i32, i32, ptr, ptr, ...) @proto_tree_add_string_format(ptr noundef %15, i32 noundef %16, ptr noundef %17, i32 noundef 0, i32 noundef 0, ptr noundef @.str.310, ptr noundef @.str.118)
  store ptr %18, ptr %12, align 8
  %19 = load ptr, ptr %12, align 8
  %20 = load i32, ptr @ett_rlc_lte_sequence_analysis, align 4
  %21 = call ptr @proto_item_add_subtree(ptr noundef %19, i32 noundef %20)
  store ptr %21, ptr %11, align 8
  %22 = load ptr, ptr %12, align 8
  call void @proto_item_set_generated(ptr noundef %22)
  %23 = load ptr, ptr %11, align 8
  %24 = load i32, ptr @hf_rlc_lte_sequence_analysis_ok, align 4
  %25 = load ptr, ptr %10, align 8
  %26 = call ptr @proto_tree_add_boolean(ptr noundef %23, i32 noundef %24, ptr noundef %25, i32 noundef 0, i32 noundef 0, i64 noundef 0)
  store ptr %26, ptr %13, align 8
  %27 = load ptr, ptr %13, align 8
  call void @proto_item_set_generated(ptr noundef %27)
  store i32 0, ptr %14, align 4
  br label %28

28:                                               ; preds = %67, %5
  %29 = load i32, ptr %14, align 4
  %30 = load ptr, ptr %6, align 8
  %31 = getelementptr inbounds nuw %struct.channel_repeated_nack_report, ptr %30, i32 0, i32 0
  %32 = load i16, ptr %31, align 4
  %33 = zext i16 %32 to i32
  %34 = icmp slt i32 %29, %33
  br i1 %34, label %35, label %70

35:                                               ; preds = %28
  %36 = load ptr, ptr %11, align 8
  %37 = load i32, ptr @hf_rlc_lte_sequence_analysis_repeated_nack, align 4
  %38 = load ptr, ptr %10, align 8
  %39 = load ptr, ptr %6, align 8
  %40 = getelementptr inbounds nuw %struct.channel_repeated_nack_report, ptr %39, i32 0, i32 1
  %41 = load i32, ptr %14, align 4
  %42 = sext i32 %41 to i64
  %43 = getelementptr [512 x i16], ptr %40, i64 0, i64 %42
  %44 = load i16, ptr %43, align 2
  %45 = zext i16 %44 to i32
  %46 = call ptr @proto_tree_add_uint(ptr noundef %36, i32 noundef %37, ptr noundef %38, i32 noundef 0, i32 noundef 0, i32 noundef %45)
  store ptr %46, ptr %13, align 8
  %47 = load ptr, ptr %13, align 8
  call void @proto_item_set_generated(ptr noundef %47)
  %48 = load ptr, ptr %8, align 8
  %49 = load ptr, ptr %13, align 8
  %50 = load ptr, ptr %6, align 8
  %51 = getelementptr inbounds nuw %struct.channel_repeated_nack_report, ptr %50, i32 0, i32 1
  %52 = load i32, ptr %14, align 4
  %53 = sext i32 %52 to i64
  %54 = getelementptr [512 x i16], ptr %51, i64 0, i64 %53
  %55 = load i16, ptr %54, align 2
  %56 = zext i16 %55 to i32
  %57 = load ptr, ptr %7, align 8
  %58 = getelementptr inbounds nuw %struct.rlc_lte_info, ptr %57, i32 0, i32 1
  %59 = load i8, ptr %58, align 1
  %60 = zext i8 %59 to i32
  %61 = call ptr @val_to_str_const(i32 noundef %60, ptr noundef @direction_vals, ptr noundef @.str.316)
  %62 = load ptr, ptr %7, align 8
  %63 = getelementptr inbounds nuw %struct.rlc_lte_info, ptr %62, i32 0, i32 4
  %64 = load i16, ptr %63, align 4
  %65 = zext i16 %64 to i32
  %66 = call ptr (ptr, ptr, ptr, ptr, ...) @expert_add_info_format(ptr noundef %48, ptr noundef %49, ptr noundef @ei_rlc_lte_sequence_analysis_repeated_nack, ptr noundef @.str.387, i32 noundef %56, ptr noundef %61, i32 noundef %65)
  br label %67

67:                                               ; preds = %35
  %68 = load i32, ptr %14, align 4
  %69 = add i32 %68, 1
  store i32 %69, ptr %14, align 4
  br label %28, !llvm.loop !30

70:                                               ; preds = %28
  %71 = load ptr, ptr %11, align 8
  %72 = load i32, ptr @hf_rlc_lte_sequence_analysis_repeated_nack_original_frame, align 4
  %73 = load ptr, ptr %10, align 8
  %74 = load ptr, ptr %6, align 8
  %75 = getelementptr inbounds nuw %struct.channel_repeated_nack_report, ptr %74, i32 0, i32 2
  %76 = load i32, ptr %75, align 4
  %77 = call ptr @proto_tree_add_uint(ptr noundef %71, i32 noundef %72, ptr noundef %73, i32 noundef 0, i32 noundef 0, i32 noundef %76)
  store ptr %77, ptr %13, align 8
  %78 = load ptr, ptr %13, align 8
  call void @proto_item_set_generated(ptr noundef %78)
  %79 = load ptr, ptr %12, align 8
  %80 = load ptr, ptr %6, align 8
  %81 = getelementptr inbounds nuw %struct.channel_repeated_nack_report, ptr %80, i32 0, i32 0
  %82 = load i16, ptr %81, align 4
  %83 = zext i16 %82 to i32
  call void (ptr, ptr, ...) @proto_item_append_text(ptr noundef %79, ptr noundef @.str.388, i32 noundef %83)
  call void @llvm.lifetime.end.p0(i64 4, ptr %14) #16
  call void @llvm.lifetime.end.p0(i64 8, ptr %13) #16
  call void @llvm.lifetime.end.p0(i64 8, ptr %12) #16
  call void @llvm.lifetime.end.p0(i64 8, ptr %11) #16
  ret void
}