; Function Attrs: null_pointer_is_valid sspstrong uwtable
define internal fastcc void @addChannelRepeatedNACKInfo(ptr noundef readonly captures(none) %0, ptr noundef nonnull readonly captures(none) %1, ptr noundef %2, ptr noundef %3, ptr noundef %4) unnamed_addr #0 {
  %6 = load i32, ptr @hf_rlc_lte_sequence_analysis, align 4
  %7 = tail call ptr (ptr, i32, ptr, i32, i32, ptr, ptr, ...) @proto_tree_add_string_format(ptr noundef %3, i32 noundef %6, ptr noundef %4, i32 noundef 0, i32 noundef 0, ptr noundef nonnull @.str.310, ptr noundef nonnull @.str.118)
  %8 = load i32, ptr @ett_rlc_lte_sequence_analysis, align 4
  %9 = tail call ptr @proto_item_add_subtree(ptr noundef %7, i32 noundef %8)
  %.not.i = icmp eq ptr %7, null
  br i1 %.not.i, label %proto_item_set_generated.exit, label %10

10:                                               ; preds = %5
  %11 = getelementptr inbounds nuw i8, ptr %7, i64 40
  %12 = load ptr, ptr %11, align 8
  %.not5.i = icmp eq ptr %12, null
  br i1 %.not5.i, label %proto_item_set_generated.exit, label %13

13:                                               ; preds = %10
  %14 = getelementptr inbounds nuw i8, ptr %12, i64 28
  %15 = load i32, ptr %14, align 4
  %16 = or i32 %15, 2
  store i32 %16, ptr %14, align 4
  br label %proto_item_set_generated.exit

proto_item_set_generated.exit:                    ; preds = %5, %10, %13
  %17 = load i32, ptr @hf_rlc_lte_sequence_analysis_ok, align 4
  %18 = tail call ptr @proto_tree_add_boolean(ptr noundef %9, i32 noundef %17, ptr noundef %4, i32 noundef 0, i32 noundef 0, i64 noundef 0)
  %.not.i26 = icmp eq ptr %18, null
  br i1 %.not.i26, label %proto_item_set_generated.exit28, label %19

19:                                               ; preds = %proto_item_set_generated.exit
  %20 = getelementptr inbounds nuw i8, ptr %18, i64 40
  %21 = load ptr, ptr %20, align 8
  %.not5.i27 = icmp eq ptr %21, null
  br i1 %.not5.i27, label %proto_item_set_generated.exit28, label %22

22:                                               ; preds = %19
  %23 = getelementptr inbounds nuw i8, ptr %21, i64 28
  %24 = load i32, ptr %23, align 4
  %25 = or i32 %24, 2
  store i32 %25, ptr %23, align 4
  br label %proto_item_set_generated.exit28

proto_item_set_generated.exit28:                  ; preds = %proto_item_set_generated.exit, %19, %22
  %26 = load i16, ptr %0, align 4
  %.not = icmp eq i16 %26, 0
  br i1 %.not, label %._crit_edge, label %.lr.ph

.lr.ph:                                           ; preds = %proto_item_set_generated.exit28
  %27 = getelementptr inbounds nuw i8, ptr %0, i64 2
  %28 = getelementptr inbounds nuw i8, ptr %1, i64 1
  %29 = getelementptr inbounds nuw i8, ptr %1, i64 4
  br label %30

30:                                               ; preds = %.lr.ph, %proto_item_set_generated.exit31
  %indvars.iv = phi i64 [ 0, %.lr.ph ], [ %indvars.iv.next, %proto_item_set_generated.exit31 ]
  %31 = load i32, ptr @hf_rlc_lte_sequence_analysis_repeated_nack, align 4
  %32 = getelementptr [512 x i16], ptr %27, i64 0, i64 %indvars.iv
  %33 = load i16, ptr %32, align 2
  %34 = zext i16 %33 to i32
  %35 = tail call ptr @proto_tree_add_uint(ptr noundef %9, i32 noundef %31, ptr noundef %4, i32 noundef 0, i32 noundef 0, i32 noundef %34)
  %.not.i29 = icmp eq ptr %35, null
  br i1 %.not.i29, label %proto_item_set_generated.exit31, label %36

36:                                               ; preds = %30
  %37 = getelementptr inbounds nuw i8, ptr %35, i64 40
  %38 = load ptr, ptr %37, align 8
  %.not5.i30 = icmp eq ptr %38, null
  br i1 %.not5.i30, label %proto_item_set_generated.exit31, label %39

39:                                               ; preds = %36
  %40 = getelementptr inbounds nuw i8, ptr %38, i64 28
  %41 = load i32, ptr %40, align 4
  %42 = or i32 %41, 2
  store i32 %42, ptr %40, align 4
  br label %proto_item_set_generated.exit31

proto_item_set_generated.exit31:                  ; preds = %30, %36, %39
  %43 = load i16, ptr %32, align 2
  %44 = zext i16 %43 to i32
  %45 = load i8, ptr %28, align 1
  %46 = zext i8 %45 to i32
  %47 = tail call ptr @val_to_str_const(i32 noundef %46, ptr noundef nonnull @direction_vals, ptr noundef nonnull @.str.316)
  %48 = load i16, ptr %29, align 4
  %49 = zext i16 %48 to i32
  %50 = tail call ptr (ptr, ptr, ptr, ptr, ...) @expert_add_info_format(ptr noundef %2, ptr noundef %35, ptr noundef nonnull @ei_rlc_lte_sequence_analysis_repeated_nack, ptr noundef nonnull @.str.387, i32 noundef %44, ptr noundef %47, i32 noundef %49)
  %indvars.iv.next = add nuw nsw i64 %indvars.iv, 1
  %51 = load i16, ptr %0, align 4
  %52 = zext i16 %51 to i64
  %53 = icmp samesign ult i64 %indvars.iv.next, %52
  br i1 %53, label %30, label %._crit_edge, !llvm.loop !33

._crit_edge:                                      ; preds = %proto_item_set_generated.exit31, %proto_item_set_generated.exit28
  %54 = load i32, ptr @hf_rlc_lte_sequence_analysis_repeated_nack_original_frame, align 4
  %55 = getelementptr inbounds nuw i8, ptr %0, i64 1028
  %56 = load i32, ptr %55, align 4
  %57 = tail call ptr @proto_tree_add_uint(ptr noundef %9, i32 noundef %54, ptr noundef %4, i32 noundef 0, i32 noundef 0, i32 noundef %56)
  %.not.i32 = icmp eq ptr %57, null
  br i1 %.not.i32, label %proto_item_set_generated.exit34, label %58

58:                                               ; preds = %._crit_edge
  %59 = getelementptr inbounds nuw i8, ptr %57, i64 40
  %60 = load ptr, ptr %59, align 8
  %.not5.i33 = icmp eq ptr %60, null
  br i1 %.not5.i33, label %proto_item_set_generated.exit34, label %61

61:                                               ; preds = %58
  %62 = getelementptr inbounds nuw i8, ptr %60, i64 28
  %63 = load i32, ptr %62, align 4
  %64 = or i32 %63, 2
  store i32 %64, ptr %62, align 4
  br label %proto_item_set_generated.exit34

proto_item_set_generated.exit34:                  ; preds = %._crit_edge, %58, %61
  %65 = load i16, ptr %0, align 4
  %66 = zext i16 %65 to i32
  tail call void (ptr, ptr, ...) @proto_item_append_text(ptr noundef %7, ptr noundef nonnull @.str.388, i32 noundef %66)
  ret void
}